; Function Attrs: nounwind uwtable
define ptr @ASN1_d2i_fp(ptr noundef readnone captures(none) %0, ptr noundef readonly captures(none) %1, ptr noundef %2, ptr noundef %3) local_unnamed_addr #0 {
  %5 = alloca ptr, align 8
  %6 = alloca ptr, align 8
  %7 = tail call ptr @BIO_s_file() #4
  %8 = tail call ptr @BIO_new(ptr noundef %7) #4
  %9 = icmp eq ptr %8, null
  br i1 %9, label %10, label %11

10:                                               ; preds = %4
  tail call void @ERR_new() #4
  tail call void @ERR_set_debug(ptr noundef nonnull @.str, i32 noundef 28, ptr noundef nonnull @__func__.ASN1_d2i_fp) #4
  tail call void (i32, i32, ptr, ...) @ERR_set_error(i32 noundef 13, i32 noundef 524295, ptr noundef null) #4
  br label %21

11:                                               ; preds = %4
  %12 = tail call i64 @BIO_ctrl(ptr noundef nonnull %8, i32 noundef 106, i64 noundef 0, ptr noundef %2) #4
  call void @llvm.lifetime.start.p0(i64 8, ptr nonnull %5) #4
  store ptr null, ptr %5, align 8, !tbaa !3
  call void @llvm.lifetime.start.p0(i64 8, ptr nonnull %6) #4
  %13 = call i32 @asn1_d2i_read_bio(ptr noundef nonnull %8, ptr noundef nonnull %5)
  %14 = icmp slt i32 %13, 0
  %.pre.i = load ptr, ptr %5, align 8, !tbaa !3
  br i1 %14, label %ASN1_d2i_bio.exit, label %15

15:                                               ; preds = %11
  %16 = getelementptr inbounds nuw i8, ptr %.pre.i, i64 8
  %17 = load ptr, ptr %16, align 8, !tbaa !8
  store ptr %17, ptr %6, align 8, !tbaa !12
  %18 = zext nneg i32 %13 to i64
  %19 = call ptr %1(ptr noundef %3, ptr noundef nonnull %6, i64 noundef %18) #4
  br label %ASN1_d2i_bio.exit

ASN1_d2i_bio.exit:                                ; preds = %11, %15
  %.0.i = phi ptr [ null, %11 ], [ %19, %15 ]
  call void @BUF_MEM_free(ptr noundef %.pre.i) #4
  call void @llvm.lifetime.end.p0(i64 8, ptr nonnull %6) #4
  call void @llvm.lifetime.end.p0(i64 8, ptr nonnull %5) #4
  %20 = call i32 @BIO_free(ptr noundef nonnull %8) #4
  br label %21

21:                                               ; preds = %ASN1_d2i_bio.exit, %10
  %.0 = phi ptr [ null, %10 ], [ %.0.i, %ASN1_d2i_bio.exit ]
  ret ptr %.0
}